; Function Attrs: mustprogress uwtable
define void @_ZN5osgeo4proj8metadata10IdentifierC2ERKS2_(ptr noundef nonnull align 8 dereferenceable(40) %0, ptr nocapture noundef nonnull readonly align 8 dereferenceable(40) %1) unnamed_addr #0 align 2 personality ptr @__gxx_personality_v0 {
  tail call void @_ZN5osgeo4proj4util10BaseObjectC2Ev(ptr noundef nonnull align 8 dereferenceable(16) %0)
  %3 = getelementptr inbounds i8, ptr %0, i64 16
  %4 = getelementptr inbounds i8, ptr %0, i64 24
  store ptr getelementptr inbounds inrange(-16, 32) ({ [6 x ptr], [5 x ptr], [5 x ptr] }, ptr @_ZTVN5osgeo4proj8metadata10IdentifierE, i64 0, i32 0, i64 2), ptr %0, align 8
  store ptr getelementptr inbounds inrange(-16, 24) ({ [6 x ptr], [5 x ptr], [5 x ptr] }, ptr @_ZTVN5osgeo4proj8metadata10IdentifierE, i64 0, i32 1, i64 2), ptr %3, align 8
  store ptr getelementptr inbounds inrange(-16, 24) ({ [6 x ptr], [5 x ptr], [5 x ptr] }, ptr @_ZTVN5osgeo4proj8metadata10IdentifierE, i64 0, i32 2, i64 2), ptr %4, align 8
  %5 = getelementptr inbounds i8, ptr %1, i64 32
  %6 = load ptr, ptr %5, align 8
  tail call void @llvm.experimental.noalias.scope.decl(metadata !89)
  %7 = invoke noalias noundef nonnull dereferenceable(224) ptr @_Znwm(i64 noundef 224) #27
          to label %.noexc unwind label %12

.noexc:                                           ; preds = %2
  invoke void @_ZN5osgeo4proj8metadata10Identifier7PrivateC2ERKS3_(ptr noundef nonnull align 8 dereferenceable(224) %7, ptr noundef nonnull align 8 dereferenceable(224) %6)
          to label %10 unwind label %8, !noalias !89

8:                                                ; preds = %.noexc
  %9 = landingpad { ptr, i32 }
          cleanup
  tail call void @_ZdlPv(ptr noundef nonnull %7) #29, !noalias !89
  br label %.body

10:                                               ; preds = %.noexc
  %11 = getelementptr inbounds i8, ptr %0, i64 32
  store ptr %7, ptr %11, align 8, !alias.scope !89
  ret void

12:                                               ; preds = %2
  %13 = landingpad { ptr, i32 }
          cleanup
  br label %.body

.body:                                            ; preds = %8, %12
  %eh.lpad-body = phi { ptr, i32 } [ %13, %12 ], [ %9, %8 ]
  tail call void @_ZN5osgeo4proj2io15IJSONExportableD2Ev(ptr noundef nonnull align 8 dereferenceable(8) %4) #28
  tail call void @_ZN5osgeo4proj2io14IWKTExportableD2Ev(ptr noundef nonnull align 8 dereferenceable(8) %3) #28
  tail call void @_ZN5osgeo4proj4util10BaseObjectD2Ev(ptr noundef nonnull align 8 dereferenceable(16) %0) #28
  resume { ptr, i32 } %eh.lpad-body
}